(dp0
S'Canada'
p1
(F83.0956562
F-52.6206965
tp2
sS'East Tennessee'
p3
(F36.678118
F-81.6469001
tp4
sS'Bologna'
p5
(F44.5561987
F11.4337169
tp6
sS'California, USA'
p7
(F42.0095169
F-114.1313927
tp8
sS'Devon. ENGLAND'
p9
(F51.2461983
F-2.8866405
tp10
sS'Scottsbluff, NE'
p11
(F41.8916759
F-103.6267971
tp12
sS'Cold Bay, Alaska, USA'
p13
(F55.28066099999999
F-162.5870488
tp14
sS'NYC'
p15
(F40.9152555
F-73.70027209999999
tp16
sS'Louisiana'
p17
(F33.019525
F-88.8162401
tp18
sS'Liverpool'
p19
(F53.503907
F-2.8129382
tp20
sS'falls church, VA'
p21
(F38.8998318
F-77.149789
tp22
sS'Panam\xc3\xa1'
p23
(F9.6477793
F-77.1584881
tp24
sS'New Brunswick, NJ'
p25
(F40.509268
F-74.39304500000001
tp26
sS'West Coast So Cal'
p27
(F33.7907908
F-118.1923905
tp28
sS'Dark Castle Town'
p29
(F29.575157
F-98.52134500000001
tp30
sS'The Greater DC Area'
p31
(F51.5435369
F-0.1243594
tp32
sS'Lagos,Nigeria.'
p33
(F6.7027983
F3.6967277
tp34
sS'Atlanta'
p35
(F33.8876179
F-84.289389
tp36
sS'Massachusetts'
p37
(F42.88679
F-69.9285512
tp38
sS'Athens, Greece'
p39
(F38.0328563
F23.7896925
tp40
sS'Frederick, MD'
p41
(F39.4885431
F-77.3602332
tp42
sS'Cottonwood, AZ'
p43
(F34.7650321
F-111.948781
tp44
sS'45\xc2\xb0 North'
p45
(F42.715295
F-73.2089488
tp46
sS'Alaska'
p47
(F71.3868712
F-129.9945563
tp48
sS'Fort Lauderdale, FL'
p49
(F26.2116658
F-80.09597699999999
tp50
sS'San Antonio, TX USA'
p51
(F29.73872
F-98.22295799999999
tp52
sS'Lafayette,  Indiana'
p53
(F40.454479
F-86.7903269
tp54
sS'norfolk'
p55
(F36.9692977
F-76.17690499999999
tp56
sS'Ljubljana,Slovenija'
p57
(F46.1422017
F14.6446963
tp58
sS'Montgomery, AL '
p59
(F32.437677
F-86.07220509999999
tp60
sS'St Paul, MN'
p61
(F44.9920161
F-93.0043199
tp62
sS'TrumpTown'
p63
(F36.94645939999999
F-76.714246
tp64
sS'Chignahuapan, Puebla, M\xc3\xa9xico.'
p65
(F19.8555107
F-98.0114048
tp66
sS'Seattle'
p67
(F47.7341451
F-122.2359033
tp68
sS'Salem Oregon'
p69
(F45.012341
F-122.9337039
tp70
sS'the village'
p71
(F53.77450589999999
F-0.3563441
tp72
sS'Saco, Maine'
p73
(F43.606822
F-70.35664299999999
tp74
sS'Bergen, Norway'
p75
(F60.52683889999999
F5.6877643
tp76
sS'Space Coast Florida'
p77
(F28.1011754
F-80.6004951
tp78
sS'San Antonio, TX'
p79
(F29.73872
F-98.22295799999999
tp80
sS'M5'
p81
(F42.55427940000001
F-83.44552689999999
tp82
sS'Wayne, NJ'
p83
(F41.0140242
F-74.19554099999999
tp84
sS'the cutting edge'
p85
(F57.1477865
F-2.1081026
tp86
sS'Rockville, MD'
p87
(F39.120714
F-77.09199579999999
tp88
sS'South Louisiana'
p89
(F33.019525
F-88.8162401
tp90
sS'Maryland'
p91
(F39.7230371
F-75.0491813
tp92
sS'Karachi, Pakistan'
p93
(F25.2483831
F67.4684518
tp94
sS'Queens, NY'
p95
(F40.80076
F-73.70027209999999
tp96
sS'Laguna Beach, CA 92651'
p97
(F33.612393
F-117.7302181
tp98
sS'chicago'
p99
(F42.0231311
F-87.52404399999999
tp100
sS'Frederick, Maryland'
p101
(F39.4885431
F-77.3602332
tp102
sS'Lake Worth, Florida'
p103
(F26.646598
F-80.0364637
tp104
sS'United States of America'
p105
(F71.3867745
F-66.9502861
tp106
sS'Boise'
p107
(F43.6898951
F-116.1019091
tp108
sS'J follows & hails me respondi\xc3\xb3'
p109
(F31.8882506
F-89.7437559
tp110
sS'America'
p111
(F71.3867745
F-66.9502861
tp112
sS'Tennessee, USA'
p113
(F36.678118
F-81.6469001
tp114
sS'New York, USA'
p115
(F40.9152555
F-73.70027209999999
tp116
sS'here'
p117
(F43.56487389999999
F0.01587
tp118
sS'Olathe, KS'
p119
(F38.9877561
F-94.7140479
tp120
sS'Cleveland, Ohio.'
p121
(F41.5992572
F-81.532744
tp122
sS'houston mo'
p123
(F37.34375989999999
F-91.93093999999999
tp124
sS'Detroit, Michigan, USA '
p125
(F42.4502301
F-82.910451
tp126
sS'Ohio'
p127
(F41.9773019
F-80.5182
tp128
sS'Canada, urban west'
p129
(F45.495351
F-73.58061579999999
tp130
sS'virginia beach'
p131
(F36.9845247
F-75.86758189999999
tp132
sS'Seminole, Fl'
p133
(F27.875832
F-82.7538411
tp134
sS'Jacmel '
p135
(F18.2581035
F-72.5118159
tp136
sS'This great country, USA.'
p137
(F38.2387343
F-76.50841199999999
tp138
sS'Colleyville, TX'
p139
(F32.9237398
F-97.09977699999999
tp140
sS'MI'
p141
(F48.1986462
F-82.413474
tp142
sS'Hampton Roads, Va'
p143
(F37.015333
F-76.26503459999999
tp144
sS'Pittsburgh PA - USA'
p145
(F40.5013681
F-79.8657231
tp146
sS'The universe'
p147
(F42.7486294
F-77.41146119999999
tp148
sS'Las Vegas'
p149
(F36.336407
F-114.8763719
tp150
sS'St. Louis, Mo.'
p151
(F38.77434909999999
F-90.166409
tp152
sS'Maine'
p153
(F47.4596735
F-66.9453971
tp154
sS'South Florida, USA'
p155
(F31.000968
F-80.0311371
tp156
sS'S TX'
p157
(F36.5007041
F-93.5080389
tp158
sS'Amarillo, TX'
p159
(F35.294475
F-101.653684
tp160
sS'Prague, Czech Rep.'
p161
(F50.177403
F14.7067946
tp162
sS'Pasadena, Tx'
p163
(F29.739927
F-94.982734
tp164
sS'San Bernardino, CA'
p165
(F34.2476399
F-117.1649721
tp166
sS'Costa Rica'
p167
(F11.2196808
F-82.55265709999999
tp168
sS'SE Iowa'
p169
(F43.5011961
F-90.140061
tp170
sS'Scottsdale'
p171
(F33.900393
F-111.756092
tp172
sS'Milton, ON, Canada'
p173
(F43.6289901
F-79.724508
tp174
sS'Roseville, Caifornia'
p175
(F38.810356
F-121.184654
tp176
sS'Australia'
p177
(F-9.2198214
F159.2557541
tp178
sS'usa'
p179
(F71.3867745
F-66.9502861
tp180
sS'Bay Area, Balifornia'
p181
(F38.8642448
F-121.208178
tp182
sS'Toronto, Ontario, Canada'
p183
(F43.8554579
F-79.1168971
tp184
sS'Davis CA '
p185
(F38.578756
F-121.6756134
tp186
sS'cali'
p187
(F3.505554
F-76.46082500000001
tp188
sS'West Hills'
p189
(F13.0283814
F80.2249198
tp190
sS'Swansea, MA'
p191
(F41.816699
F-71.153436
tp192
sS'Hong Kong'
p193
(F22.561968
F114.4069573
tp194
sS'Chicago, Illinois, USA'
p195
(F42.0231311
F-87.52404399999999
tp196
sS'Chennai '
p197
(F13.2611661
F80.33632279999999
tp198
sS'Grand Blanc, MI'
p199
(F42.938524
F-83.59037599999999
tp200
sS'New Delhi'
p201
(F28.6504799
F77.34496
tp202
sS'San Francisco, CA'
p203
(F37.9297708
F-122.3279149
tp204
sS'Philadelphia, PA'
p205
(F40.13799179999999
F-74.95576299999999
tp206
sS'Louisville, KY'
p207
(F38.3805101
F-85.40509999999999
tp208
sS'Chicago, IL, Morseville, IL'
p209
(F41.682014
F-88.0563241
tp210
sS'Frisco, CO'
p211
(F39.5991239
F-106.064288
tp212
sS'Cincinnati, OH'
p213
(F39.2207591
F-84.3687549
tp214
sS'Portland, OR'
p215
(F45.65248
F-122.4718489
tp216
sS'Langley, Washington'
p217
(F48.0434827
F-122.3879313
tp218
sS'Birmingham'
p219
(F33.6787149
F-86.5781499
tp220
sS' America  '
p221
(F71.3867745
F-66.9502861
tp222
sS'Sao Paulo, Brazil'
p223
(F-23.3566039
F-46.36508449999999
tp224
sS'CT.'
p225
(F42.050587
F-71.7872391
tp226
sS'M\xc3\xa9xico'
p227
(F32.7187629
F-86.7105711
tp228
sS'Fort Wayne, IN, USA'
p229
(F41.1997791
F-84.998627
tp230
sS'Ohio, USA'
p231
(F41.9773019
F-80.5182
tp232
sS'Raleigh, NC'
p233
(F35.9717279
F-78.471063
tp234
sS'florida'
p235
(F31.000968
F-80.0311371
tp236
sS'Harbor City, CA'
p237
(F33.816916
F-118.2804042
tp238
sS'Rochester, MI'
p239
(F42.7044
F-83.0938159
tp240
sS'Washington DC'
p241
(F38.995548
F-76.909393
tp242
sS'North Carolina, USA'
p243
(F36.5881569
F-75.4599516
tp244
sS'Oslo, Norway'
p245
(F59.9780349
F10.9476641
tp246
sS'Albany, NY'
p247
(F42.7223789
F-73.7247004
tp248
sS'Northern Michigan, USA'
p249
(F47.079126
F-96.25314
tp250
sS'Bowling Green, OH'
p251
(F41.4145951
F-83.5999619
tp252
sS'The Woodlands, TX'
p253
(F30.231373
F-95.44672969999999
tp254
sS'LA'
p255
(F22.5028719
F107.6948299
tp256
sS'Kingston, Jamaica'
p257
(F18.0724069
F-76.72937399999999
tp258
sS'Los Angeles, CA, U.S.A.'
p259
(F34.3373061
F-118.1552891
tp260
sS'MEMPHIS TN'
p261
(F35.264187
F-89.637081
tp262
sS'nyc'
p263
(F40.9152555
F-73.70027209999999
tp264
sS'Oregon, USA'
p265
(F46.29201579999999
F-116.463262
tp266
sS'New Canaan, CT'
p267
(F41.2116959
F-73.448965
tp268
sS'Tacoma, Washington.'
p269
(F47.3190031
F-122.3482139
tp270
sS'Simpsonville, SC'
p271
(F34.7748891
F-82.21831209999999
tp272
sS'Los Angeles, CA'
p273
(F34.3373061
F-118.1552891
tp274
sS'Maple Grove Minnesota'
p275
(F45.1559309
F-93.40052790000001
tp276
sS'Columbia, MD'
p277
(F39.24003889999999
F-76.786965
tp278
sS'STL'
p279
(F38.77434909999999
F-90.166409
tp280
sS'Burlington, North Carolina'
p281
(F36.127216
F-79.3794489
tp282
sS'Austin, Texas'
p283
(F30.516863
F-97.5684199
tp284
sS'Cape Cod, Ma'
p285
(F42.08231749999999
F-69.9285512
tp286
sS'St. Louis'
p287
(F38.77434909999999
F-90.166409
tp288
sS'Montclair,nj'
p289
(F40.8618471
F-74.18268909999999
tp290
sS'Canton, Ohio, US'
p291
(F40.8658639
F-81.3009979
tp292
sS'Statesboro, GA'
p293
(F32.4888503
F-81.73151709999999
tp294
sS'Richmond B.C.'
p295
(F49.2574755
F-122.957113
tp296
sS'Purcellville, VA'
p297
(F39.16053910000001
F-77.6864591
tp298
sS'hampton, VA'
p299
(F37.1121091
F-76.2707076
tp300
sS'Miami [Estados Unidos]'
p301
(F25.8556059
F-80.1424004
tp302
sS'Tennessee'
p303
(F36.678118
F-81.6469001
tp304
sS'Chicago'
p305
(F42.0231311
F-87.52404399999999
tp306
sS'Cleburne, Texas'
p307
(F32.43725
F-97.345794
tp308
sS'Marietta, OH'
p309
(F39.459228
F-81.4019331
tp310
sS'Colton, CA'
p311
(F34.095611
F-117.269531
tp312
sS'Denver, Colo.'
p313
(F39.91424689999999
F-104.600296
tp314
sS'Baja Arizona'
p315
(F32.65372
F-114.169991
tp316
sS'Minnesota'
p317
(F49.3828205
F-89.49183339999999
tp318
sS'Appalachia'
p319
(F36.920944
F-82.7651681
tp320
sS'Perth'
p321
(F-31.6244855
F116.239023
tp322
sS'Evanston, IL'
p323
(F42.0718019
F-87.66529709999999
tp324
sS'Texas'
p325
(F36.5007041
F-93.5080389
tp326
sS'Wylie, TX'
p327
(F33.10033
F-96.423209
tp328
sS'Bath, UK'
p329
(F51.4117741
F-2.3149067
tp330
sS'newport news'
p331
(F37.220645
F-76.3875949
tp332
sS'The Outside'
p333
(F-34.0955449
F18.3720889
tp334
sS'Lake Elsinore, CA'
p335
(F33.7584911
F-117.219582
tp336
sS'Omaha, NE  USA'
p337
(F41.3931701
F-95.8711411
tp338
sS'Indiana, USA'
p339
(F41.7606971
F-84.784662
tp340
sS'Brooklyn, New York'
p341
(F40.739446
F-73.8333651
tp342
sS'World'
p343
(F40.9152555
F-73.70027209999999
tp344
sS'winter park florida '
p345
(F28.632476
F-81.3079899
tp346
sS'Carbondale, IL'
p347
(F37.7620069
F-89.151448
tp348
sS'Fayetteville, AR'
p349
(F36.148781
F-94.0266819
tp350
sS'Iowa, USA'
p351
(F43.5011961
F-90.140061
tp352
sS'Cambridge, UK'
p353
(F52.237855
F0.1919274
tp354
sS'Florence, KY'
p355
(F39.03091390000001
F-84.6110839
tp356
sS'Kansas City, MO'
p357
(F39.356662
F-94.38552209999999
tp358
sS'Mebane NC'
p359
(F36.1353231
F-79.22415
tp360
sS'PORT ORANGE, FL'
p361
(F29.1572311
F-80.9615335
tp362
sS'delaware county,pa'
p363
(F40.066197
F-75.215722
tp364
sS'Texas USA '
p365
(F36.5007041
F-93.5080389
tp366
sS'detroit'
p367
(F42.4502301
F-82.910451
tp368
sS'Contra Costa County, CA'
p369
(F38.099878
F-121.5342213
tp370
sS'Pennsylvania, USA'
p371
(F42.2693867
F-74.69009729999999
tp372
sS'Houston, TX'
p373
(F30.1107319
F-95.014496
tp374
sS'Richmond VA'
p375
(F37.6027689
F-77.3855119
tp376
sS'Austin, TX'
p377
(F30.516863
F-97.5684199
tp378
sS'United States Of America '
p379
(F71.3867745
F-66.9502861
tp380
sS'Morgantown, WV'
p381
(F39.6750971
F-79.898771
tp382
sS'Chicago, Illinois'
p383
(F42.0231311
F-87.52404399999999
tp384
sS'to tokyo'
p385
(F35.8986469
F153.9875216
tp386
sS'Mongolia'
p387
(F52.1486964
F119.9319488
tp388
sS'alexandria,  Egypt'
p389
(F31.3309039
F30.0864016
tp390
sS'christmas island'
p391
(F-10.4123743
F105.7127383
tp392
sS'LANCASTER,NY'
p393
(F42.918101
F-78.6571381
tp394
sS'Highlands Ranch, CO'
p395
(F39.5662499
F-104.9004211
tp396
sS'Michigan'
p397
(F48.1986462
F-82.413474
tp398
sS'Florida, USA Florida Gator'
p399
(F26.6968571
F-80.6274627
tp400
sS'Brasil '
p401
(F5.2717863
F-29.3449961
tp402
sS'Maui, Hawaii'
p403
(F21.2238323
F-155.9788256
tp404
sS'Nyc'
p405
(F40.9152555
F-73.70027209999999
tp406
sS'mount clemens, MI'
p407
(F42.617894
F-82.856771
tp408
sS'S. California'
p409
(F42.0095169
F-114.1313927
tp410
sS'Ringgold, GA'
p411
(F34.934788
F-85.087791
tp412
sS'Mesquite, Texas'
p413
(F32.849232
F-96.47181309999999
tp414
sS'Miami, FL'
p415
(F25.8556059
F-80.1424004
tp416
sS'Ukraine'
p417
(F52.37958099999999
F40.2285809
tp418
sS'Arizona '
p419
(F37.0042599
F-109.0452231
tp420
sS'Chatham Kent, Ontario'
p421
(F42.65148
F-81.6685559
tp422
sS'Nevada, USA'
p423
(F42.002207
F-114.039648
tp424
sS'In ya area!'
p425
(F19.3050685
F73.0666741
tp426
sS'Dallas, Texas, USA'
p427
(F33.0237921
F-96.4637379
tp428
sS'United States'
p429
(F71.3867745
F-66.9502861
tp430
sS'Melbourne, Victoria'
p431
(F-37.79944589999999
F144.989097
tp432
sS'New Jersey, USA'
p433
(F41.3573676
F-73.9024391
tp434
sS'harrison township, MI'
p435
(F42.4274
F-83.324129
tp436
sS'Charlotte NC'
p437
(F35.39313300000001
F-80.670104
tp438
sS'Cambridge'
p439
(F42.4043839
F-71.0654873
tp440
sS'Clemson, South Carolina'
p441
(F34.70986389999999
F-82.7791869
tp442
sS'Rancho Cucamonga, California'
p443
(F34.17138
F-117.478789
tp444
sS'Boston'
p445
(F42.3988669
F-70.9232011
tp446
sS'NYC '
p447
(F40.9152555
F-73.70027209999999
tp448
sS'San Diego, CA'
p449
(F33.114249
F-116.90816
tp450
sS'weymouth massachusetts'
p451
(F42.2809489
F-70.91017939999999
tp452
sS'Marte '
p453
(F25.6761535
F-100.2486614
tp454
sS'Massachusetts, USA'
p455
(F42.88679
F-69.9285512
tp456
sS'The South, USA'
p457
(F71.3867745
F-66.9502861
tp458
sS'Allentown, PA'
p459
(F40.635982
F-75.4196379
tp460
sS'Dana Point CA'
p461
(F33.498278
F-117.644974
tp462
sS'in your dreams .. in NY/NJ'
p463
(F41.3573676
F-73.9024391
tp464
sS'North East-South West'
p465
(F34.6923636
F36.4651241
tp466
sS'Mexico City'
p467
(F19.5927572
F-98.9604482
tp468
sS'Rocklin, CA'
p469
(F38.8526029
F-121.1887221
tp470
sS'Detroit, MI'
p471
(F42.4502301
F-82.910451
tp472
sS'Oklahoma'
p473
(F37.0023119
F-94.43066209999999
tp474
sS'California '
p475
(F42.0095169
F-114.1313927
tp476
sS'London UK'
p477
(F51.6723432
F0.1482711
tp478
sS'Minneapolis, MN, USA   '
p479
(F45.05125
F-93.193794
tp480
sS'New England'
p481
(F47.459686
F-66.8850751
tp482
sS'Dallas, TX'
p483
(F33.0237921
F-96.4637379
tp484
sS'Manhattan, NY'
p485
(F40.882214
F-73.907
tp486
sS'Vancouver, BC'
p487
(F49.3140764
F-123.0230679
tp488
sS'Pittsburgh, PA'
p489
(F40.5013681
F-79.8657231
tp490
sS'new york'
p491
(F40.9152555
F-73.70027209999999
tp492
sS'Cheshire East'
p493
(F53.3874449
F-1.9747938
tp494
sS'Belgium'
p495
(F51.5051448
F6.408124099999999
tp496
sS'WORLD'
p497
(F40.9152555
F-73.70027209999999
tp498
sS'Hollywood, Los Angeles'
p499
(F34.111236
F-118.2840872
tp500
sS'Wichita, KS'
p501
(F37.8402
F-97.1530251
tp502
sS'Houston'
p503
(F30.1107319
F-95.014496
tp504
sS'\xe0\xa4\xa8\xe0\xa5\x87\xe0\xa4\xaa\xe0\xa4\xbe\xe0\xa4\xb2'
p505
(F30.4469452
F88.20152569999999
tp506
sS'Madrid, Spain'
p507
(F40.5638447
F-3.5249116
tp508
sS'Milano'
p509
(F45.5356889
F9.2903463
tp510
sS'Whitesburg ky'
p511
(F37.13675509999999
F-82.789976
tp512
sS'Euston Road, London'
p513
(F51.530876
F-0.1223533
tp514
sS'iPhone: 40.899307,-77.769928'
p515
(F36.6821542
F116.9937323
tp516
sS'Annex, Toronto'
p517
(F43.6771849
F-79.3941293
tp518
sS'Mountain West'
p519
(F31.2550414
F-105.3749503
tp520
sS'Breaux Bridge, LA'
p521
(F30.3108959
F-91.8685869
tp522
sS'India '
p523
(F35.5087008
F97.395561
tp524
sS'Colorado, USA'
p525
(F41.00344399999999
F-102.040878
tp526
sS'toronto'
p527
(F43.8554579
F-79.1168971
tp528
sS'Colorado'
p529
(F41.00344399999999
F-102.040878
tp530
sS'Cooper City, FL'
p531
(F26.0647493
F-80.24894499999999
tp532
sS'in formation'
p533
(F10.6861119
F-12.2586635
tp534
sS'Chicago, IL'
p535
(F42.0231311
F-87.52404399999999
tp536
sS'sweden'
p537
(F69.0599709
F24.1773102
tp538
sS'New York'
p539
(F40.9152555
F-73.70027209999999
tp540
sS'Arlington, TX'
p541
(F32.817121
F-97.0370081
tp542
sS'Jacksonville, FL.'
p543
(F30.5862321
F-81.3914121
tp544
sS'St. Croix, USVI'
p545
(F17.7901368
F-64.56519279999999
tp546
sS'Portland, Oregon, USA'
p547
(F45.65248
F-122.4718489
tp548
sS'Virginia, USA'
p549
(F39.466012
F-75.2421573
tp550
sS'Dallas, TX '
p551
(F33.0237921
F-96.4637379
tp552
sS'Larkspur ca'
p553
(F37.9586229
F-122.500785
tp554
sS'DC'
p555
(F38.995548
F-76.909393
tp556
sS'Philadelphia, Pennsylvania'
p557
(F40.13799179999999
F-74.95576299999999
tp558
sS'Colvos Passage, Vashon, Wa.'
p559
(F47.359362
F-122.5548482
tp560
sS'up front'
p561
(F45.68963129999999
F-87.5260653
tp562
sS'Bayonne, NJ'
p563
(F40.6978753
F-74.06582929999999
tp564
sS'Hollywood,Chicago,Houston,N.Y.'
p565
(F40.9152555
F-73.70027209999999
tp566
sS'Idaho'
p567
(F49.0011461
F-111.043495
tp568
sS'Magic City'
p569
(F25.8556059
F-80.1424004
tp570
sS'\xd0\x92\xd0\xbe\xd0\xbb\xd0\xb3\xd0\xbe\xd0\xb3\xd1\x80\xd0\xb0\xd0\xb4'
p571
(F48.88889
F44.6809886
tp572
sS'Brooklyn '
p573
(F40.739446
F-73.8333651
tp574
sS'Alabama, USA'
p575
(F35.007889
F-84.88824609999999
tp576
sS'san diego'
p577
(F33.114249
F-116.90816
tp578
sS'Virginia'
p579
(F39.466012
F-75.2421573
tp580
sS'NW USA'
p581
(F71.3867745
F-66.9502861
tp582
sS'Broadway '
p583
(F43.0393
F-73.78954639999999
tp584
sS'New Albany IN'
p585
(F38.371923
F-85.7829469
tp586
sS'Newton, MA'
p587
(F42.3679719
F-71.1569969
tp588
sS'Glasgow, Scotland'
p589
(F55.9296412
F-4.0717167
tp590
sS'Plant City, FL'
p591
(F28.0911851
F-82.056287
tp592
sS'Los Angeles , New York,  Texas'
p593
(F27.4850493
F-99.46588299999999
tp594
sS'Los Angeles County'
p595
(F34.8231929
F-117.6456041
tp596
sS'Edmonton, Alberta'
p597
(F53.7161
F-113.2731591
tp598
sS'Washington DC '
p599
(F38.995548
F-76.909393
tp600
sS'Miami, Florida'
p601
(F25.8556059
F-80.1424004
tp602
sS'MichiganUSA'
p603
(F48.1986462
F-82.413474
tp604
sS'New Orleans, LA'
p605
(F30.1748626
F-89.6269312
tp606
sS'London, Ontario'
p607
(F43.0732451
F-81.106388
tp608
sS'Los Angeles-Boston-Virginia'
p609
(F38.5511563
F-78.1254704
tp610
sS'Slidell, LA'
p611
(F30.358065
F-89.72323500000002
tp612
sS'Sarasota, FL'
p613
(F27.389122
F-82.47864109999999
tp614
sS'Denver, CO'
p615
(F39.91424689999999
F-104.600296
tp616
sS'Colombia'
p617
(F13.3944833
F-66.851923
tp618
sS'Upper East Side, Manhattan'
p619
(F40.7879499
F-73.94221689999999
tp620
sS'Beautiful Northwest USA'
p621
(F41.9674923
F-92.5694755
tp622
sS'new york state of mind'
p623
(F40.40353349999999
F-74.0325041
tp624
sS'New Hampshire, USA'
p625
(F45.3054761
F-70.6026613
tp626
sS'Boynton Beach, Florida'
p627
(F26.5727851
F-80.0514889
tp628
sS'Earth'
p629
(F34.2476349
F-102.384555
tp630
sS'Sydney, Australia'
p631
(F-33.5782356
F151.3430193
tp632
sS'Fort Wayne, IN'
p633
(F41.1997791
F-84.998627
tp634
sS'Tampa, Florida'
p635
(F28.171478
F-82.2597409
tp636
sS'Victoria, BC'
p637
(F48.450518
F-123.322346
tp638
sS'Paris'
p639
(F48.9021449
F2.4699209
tp640
sS'Lynn, MA'
p641
(F42.5123831
F-70.92195749999999
tp642
sS'Waxhaw, NC'
p643
(F34.961995
F-80.724707
tp644
sS'WV'
p645
(F40.638801
F-77.7189679
tp646
sS'The United States of America'
p647
(F71.3867745
F-66.9502861
tp648
sS'Ponce, PR'
p649
(F18.0589799
F-66.5096112
tp650
sS'USA/San Diego, CA'
p651
(F33.114249
F-116.90816
tp652
sS'Abuja'
p653
(F9.1866247
F7.5555897
tp654
sS'NW Georgia'
p655
(F35.00065900000001
F-80.8407866
tp656
sS'Idaho, USA'
p657
(F49.0011461
F-111.043495
tp658
sS'Destin, FL & Jefferson, GA'
p659
(F30.4177911
F-86.397207
tp660
sS'Colorado '
p661
(F41.00344399999999
F-102.040878
tp662
sS'Washington, USA'
p663
(F38.995548
F-76.909393
tp664
sS'Crystal River, FL'
p665
(F28.9256961
F-82.568676
tp666
sS'Bloomington, IN'
p667
(F39.22107
F-86.4712941
tp668
sS'Ann Arbor'
p669
(F42.3239729
F-83.6758069
tp670
sS'Washington, DC'
p671
(F38.995548
F-76.909393
tp672
sS'perryopolis pa'
p673
(F40.0990369
F-79.7339291
tp674
sS'Tempe, AZ'
p675
(F33.463984
F-111.8772261
tp676
sS'Boulder, Colorado, USA'
p677
(F40.094551
F-105.178197
tp678
sS'Fairfield, CT'
p679
(F41.231993
F-73.2178071
tp680
sS'Morganville, NJ'
p681
(F40.366807
F-74.26086
tp682
sS'Dirty South'
p683
(F40.6475359
F-79.41159360000002
tp684
sS'Denver,Co Lajolla,ca '
p685
(F39.91424689999999
F-104.600296
tp686
sS'Belo Horizonte - MG'
p687
(F-19.7763149
F-43.8647871
tp688
sS'michigan'
p689
(F48.1986462
F-82.413474
tp690
sS'coast'
p691
(F41.88744519999999
F-87.6182832
tp692
sS'Arkansas, USA'
p693
(F36.4997491
F-89.64483790000001
tp694
sS'SouthWestern Illinois USA'
p695
(F39.3189104
F-89.5761979
tp696
sS'Toronto, Ontario - CANADA'
p697
(F43.8554579
F-79.1168971
tp698
sS'Guaraguao, Puerto Rico'
p699
(F18.145782
F-66.65264309999999
tp700
sS'Woori Yallock'
p701
(F-37.7354059
F145.5764049
tp702
sS'Always near the water.'
p703
(F13.7589564
F121.0755237
tp704
sS'University of Kentucky'
p705
(F38.22657
F-85.750861
tp706
sS'Florida / Indiana'
p707
(F40.1630018
F-85.7073498
tp708
sS'New Jersey'
p709
(F41.3573676
F-73.9024391
tp710
sS'Missouri, USA'
p711
(F40.61364
F-89.09949399999999
tp712
sS'Washington'
p713
(F38.995548
F-76.909393
tp714
sS'Minneapolis'
p715
(F45.05125
F-93.193794
tp716
sS'Delray Beach, Florida'
p717
(F26.4914608
F-80.0557784
tp718
sS'london'
p719
(F51.6723432
F0.1482711
tp720
sS'Reno, NV'
p721
(F39.723436
F-119.699345
tp722
sS'Northeastern Ohio'
p723
(F39.936507
F-83.6811231
tp724
sS'Boston area'
p725
(F33.4611827
F-94.32751619999999
tp726
sS'AMAC'
p727
(F47.7543577
F22.9303121
tp728
sS'Roseville, CA'
p729
(F38.810356
F-121.184654
tp730
sS'Independence, OR'
p731
(F44.872497
F-123.1764269
tp732
sS'Various'
p733
(F33.430431
F-112.292118
tp734
sS'Cranston, RI'
p735
(F41.80702000000001
F-71.3809654
tp736
sS'Hearts & Minds'
p737
(F35.2635027
F136.8592938
tp738
sS'Near epicenter of US'
p739
(F42.9975088
F-89.5672792
tp740
sS'\xc3\x9cT: 41.919172,-87.668115'
p741
(F37.2108747
F-113.2701132
tp742
sS'Willow Grove, PA'
p743
(F40.1711549
F-75.091416
tp744
sS'THE United States of America '
p745
(F71.3867745
F-66.9502861
tp746
sS'Iowa'
p747
(F43.5011961
F-90.140061
tp748
sS'Classified '
p749
(F34.9672611
F-80.90843
tp750
sS'New York City'
p751
(F40.9152555
F-73.70027209999999
tp752
sS'earth '
p753
(F34.2476349
F-102.384555
tp754
sS'lakeland,fl.'
p755
(F28.1722891
F-81.838785
tp756
sS'PA'
p757
(F42.2693867
F-74.69009729999999
tp758
sS'Warren, MI'
p759
(F42.538429
F-82.967145
tp760
sS'Los Angeles'
p761
(F34.3373061
F-118.1552891
tp762
sS'Springfield, IL, USA'
p763
(F39.874049
F-89.5684859
tp764
sS'Indy / Northern,Ky'
p765
(F39.1474581
F-81.9649709
tp766
sS'San Antonio'
p767
(F29.73872
F-98.22295799999999
tp768
sS'Lakewood,Wa'
p769
(F47.1982659
F-122.464516
tp770
sS'Ontario, Canada'
p771
(F56.8565279
F-74.34388229999999
tp772
sS'U.S.'
p773
(F71.3867745
F-66.9502861
tp774
sS'Florida'
p775
(F31.000968
F-80.0311371
tp776
sS'OREGON'
p777
(F46.29201579999999
F-116.463262
tp778
sS'Carolina, USA'
p779
(F38.1750891
F-86.7120443
tp780
sS'Northern Virginia'
p781
(F37.3380991
F-81.279048
tp782
sS'37.2748, -81.3037'
p783
(F37.008577
F35.3811554
tp784
sS'Cosmos'
p785
(F44.942868
F-94.67600089999999
tp786
sS'Brooklyn USA'
p787
(F40.739446
F-73.8333651
tp788
sS'Belton, TX'
p789
(F31.1099441
F-97.426001
tp790
sS'New York, NY '
p791
(F40.9152555
F-73.70027209999999
tp792
sS'Washington, D.C.'
p793
(F38.995548
F-76.909393
tp794
sS'Omaha, NE'
p795
(F41.3931701
F-95.8711411
tp796
sS'flint, MI'
p797
(F43.079336
F-83.6205449
tp798
sS'Quebec'
p799
(F62.600852
F-57.1054859
tp800
sS'Arizona, USA'
p801
(F37.0042599
F-109.0452231
tp802
sS'Destin, FL'
p803
(F30.4177911
F-86.397207
tp804
sS'Atlanta, Georgia '
p805
(F33.8876179
F-84.289389
tp806
sS'Bodensee, Schweiz'
p807
(F47.8174495
F9.753852499999999
tp808
sS'NY b4 LA b4 Dallas'
p809
(F41.6562815
F-73.889776
tp810
sS'georgia USA'
p811
(F35.00065900000001
F-80.8407866
tp812
sS'Delaware'
p813
(F39.839484
F-75.04869339999999
tp814
sS'Cornwall N.Y.'
p815
(F41.460062
F-74.01594399999999
tp816
sS'Napa Valley, CA'
p817
(F38.620105
F-122.2218768
tp818
sS'Leeds, England'
p819
(F53.88120199999999
F-1.3973731
tp820
sS'NE OH'
p821
(F41.9773019
F-80.5182
tp822
sS'The City'
p823
(F37.9297708
F-122.3279149
tp824
sS'Midwest'
p825
(F43.419657
F-106.268849
tp826
sS'norman ok'
p827
(F35.3483241
F-97.176918
tp828
sS'Boston, USA'
p829
(F42.3988669
F-70.9232011
tp830
sS'Arkie'
p831
(F36.4011931
F-94.05118879999999
tp832
sS'Sacramento, CA'
p833
(F38.685507
F-121.3257051
tp834
sS'Fabulous land'
p835
(F42.7007543
F-84.56268159999999
tp836
sS'DALLAS, TEXAS 75232'
p837
(F32.6913549
F-96.81455
tp838
sS'Etats-Unis'
p839
(F71.3867745
F-66.9502861
tp840
sS'Utah '
p841
(F42.00161809999999
F-109.041058
tp842
sS'Denver, Colorado'
p843
(F39.91424689999999
F-104.600296
tp844
sS'California'
p845
(F42.0095169
F-114.1313927
tp846
sS'New Mexico '
p847
(F37.0002931
F-103.0019641
tp848
sS'Las Vegas, Nevada'
p849
(F36.3806231
F-115.0620721
tp850
sS'England, United Kingdom'
p851
(F55.8111127
F1.762916
tp852
sS'Newport Beach, CA'
p853
(F33.6719199
F-117.78349
tp854
sS'Toronto'
p855
(F43.8554579
F-79.1168971
tp856
sS'Georgia'
p857
(F35.00065900000001
F-80.8407866
tp858
sS'San Jose, CA'
p859
(F37.4695381
F-121.589154
tp860
sS'Pennsylvania'
p861
(F42.2693867
F-74.69009729999999
tp862
sS'CA'
p863
(F42.0095169
F-114.1313927
tp864
sS'Oklahoma City'
p865
(F35.674752
F-97.12472
tp866
sS'Hillsboro, Oregon'
p867
(F45.57587059999999
F-122.8589851
tp868
sS'Sheboygan, WI'
p869
(F43.797622
F-87.69553200000001
tp870
sS'website: '
p871
(F9.963518299999999
F76.294235
tp872
sS'CT'
p873
(F42.050587
F-71.7872391
tp874
sS'Quincy, MA'
p875
(F42.3079899
F-70.945841
tp876
sS'Lebanon, OH'
p877
(F39.4675969
F-84.160212
tp878
sS'Saint albans , Wv'
p879
(F38.39487099999999
F-81.787888
tp880
sS'RI'
p881
(F42.0188
F-71.1205471
tp882
sS'texas'
p883
(F36.5007041
F-93.5080389
tp884
sS'Connecticut, USA'
p885
(F42.050587
F-71.7872391
tp886
sS'Nashville, TN & Washington, DC'
p887
(F36.405496
F-86.515588
tp888
sS'Airdrie, Alberta'
p889
(F51.3292709
F-113.9232445
tp890
sS'District of Columbia, USA'
p891
(F38.995548
F-76.909393
tp892
sS'Charlotte, NC'
p893
(F35.39313300000001
F-80.670104
tp894
sS'Mafikeng, South Africa'
p895
(F-25.7694069
F25.8060999
tp896
sS'New Mexico, USA'
p897
(F37.0002931
F-103.0019641
tp898
sS'Gustine, California'
p899
(F37.2671791
F-120.9607981
tp900
sS'Tampa, Fl'
p901
(F28.171478
F-82.2597409
tp902
sS'Tijuana, Baja California'
p903
(F32.5556323
F-116.7713996
tp904
sS'Washington State, USA'
p905
(F49.0024305
F-116.91558
tp906
sS'North Carolina'
p907
(F36.5881569
F-75.4599516
tp908
sS'White Cloud, MI'
p909
(F43.5613921
F-85.75174009999999
tp910
sS'Catland USA'
p911
(F35.664207
F-92.3424229
tp912
sS'Columbia/St Louis MO'
p913
(F38.487531
F-90.167064
tp914
sS'Baltimore, MD'
p915
(F39.3722059
F-76.5294529
tp916
sS'royal oak, MI'
p917
(F42.54032
F-83.1107361
tp918
sS'Israel'
p919
(F33.33280500000001
F35.8962439
tp920
sS'BRASIL'
p921
(F5.2717863
F-29.3449961
tp922
sS'Newyork'
p923
(F40.9152555
F-73.70027209999999
tp924
sS'Tampa, FL'
p925
(F28.171478
F-82.2597409
tp926
sS'Warwick, RI'
p927
(F41.768333
F-71.35603549999999
tp928
sS'U.S.A'
p929
(F71.3867745
F-66.9502861
tp930
sS'St Clair County, MI'
p931
(F43.168946
F-82.413474
tp932
sS'All over '
p933
(F49.6805604
F-116.0372347
tp934
sS'Zimbabwe'
p935
(F-15.609319
F33.068236
tp936
sS'Scottsdale, AZ'
p937
(F33.900393
F-111.756092
tp938
sS'Colchester, UK'
p939
(F51.9290019
F0.9626118999999999
tp940
sS'Gettysburg, PA'
p941
(F39.8437131
F-77.21763609999999
tp942
sS'Bentonville, AR'
p943
(F36.4376958
F-94.1515331
tp944
sS'VA'
p945
(F39.466012
F-75.2421573
tp946
sS'Vermont'
p947
(F45.0166591
F-71.4650389
tp948
sS'Death Valley'
p949
(F37.3812428
F-115.6483569
tp950
sS'San Francisco/L.A.'
p951
(F37.9297708
F-122.3279149
tp952
sS'Chicago/Florida'
p953
(F-32.9283057
F-60.6830922
tp954
sS'Terrace, BC CANADA'
p955
(F54.543466
F-128.5131049
tp956
sS'Albuquerque, NM'
p957
(F35.218054
F-106.471163
tp958
sS'Lockport NY '
p959
(F43.1939561
F-78.6625531
tp960
sS'United Kingdom'
p961
(F60.8608663
F33.9165549
tp962
sS'Salem, OR'
p963
(F45.012341
F-122.9337039
tp964
sS'Royal Oak, MI'
p965
(F42.54032
F-83.1107361
tp966
sS'Milwaukee '
p967
(F43.1949671
F-87.8639841
tp968
sS'Republic of the Philippines ;)'
p969
(F19.5738013
F126.6043836
tp970
sS'Springfield, MO'
p971
(F37.2708071
F-93.1786431
tp972
sS'Stockton, NJ'
p973
(F40.4136371
F-74.9649921
tp974
sS'\xe3\x82\xab\xe3\x83\xaa\xe5\xb7\x9e\xe3\x81\xa9\xe7\x94\xb0\xe8\x88\x8e\xe7\xa7\x98\xe5\xaf\x86\xe5\x9f\xba\xe5\x9c\xb0'
p975
(F3.505554
F-76.46082500000001
tp976
sS'not in vermont'
p977
(F42.8628693
F-72.8140109
tp978
sS'VIRGINIA'
p979
(F39.466012
F-75.2421573
tp980
sS'Del Valle Norte, Benito Ju\xc3\xa1rez'
p981
(F19.4024055
F-99.16056429999999
tp982
sS'Glen Rose, Tx'
p983
(F32.2648918
F-97.72923399999999
tp984
sS'Petal, MS'
p985
(F31.3745959
F-89.174363
tp986
sS'Fort Worth/Dallas'
p987
(F33.049311
F-97.0337151
tp988
sS'San Francisco'
p989
(F37.9297708
F-122.3279149
tp990
sS'Las Vegas, NV'
p991
(F36.3806231
F-115.0620721
tp992
sS'Central Valley, CA.'
p993
(F40.709755
F-122.3369849
tp994
sS'TEXAS'
p995
(F36.5007041
F-93.5080389
tp996
sS'Petaling Jaya, Malaysia'
p997
(F3.204971
F101.6637271
tp998
sS'Charleston -- Charlotte'
p999
(F35.1933186
F-80.764163
tp1000
sS'Sweden, Europe.'
p1001
(F69.0599709
F24.1773102
tp1002
sS'Knoxville, TN'
p1003
(F36.067428
F-83.688543
tp1004
sS'Tallahassee, FL'
p1005
(F30.5873371
F-84.129826
tp1006
sS'Burbank'
p1007
(F34.221654
F-118.2801091
tp1008
sS'Orion, MI'
p1009
(F42.797945
F-83.2137801
tp1010
sS'Atlanta, GA'
p1011
(F33.8876179
F-84.289389
tp1012
sS'San Francisco, California'
p1013
(F37.9297708
F-122.3279149
tp1014
sS'NeoSAITAMA,JAPAN'
p1015
(F36.0330897
F139.5324362
tp1016
sS'Raleigh, NC '
p1017
(F35.9717279
F-78.471063
tp1018
sS'Utica, Michigan'
p1019
(F42.637182
F-82.99297399999999
tp1020
sS'utah'
p1021
(F42.00161809999999
F-109.041058
tp1022
sS'Newport News, Virginia, USA'
p1023
(F37.220645
F-76.3875949
tp1024
sS'palmdale ca'
p1025
(F34.661043
F-117.915747
tp1026
sS'Silicon Valley'
p1027
(F37.5854665
F-121.7412328
tp1028
sS'Northern Hemisphere'
p1029
(F-31.6845611
F115.7817103
tp1030
sS'New Zealand'
p1031
(F-29.2313419
F-175.8315361
tp1032
sS'Clarksburg, WV'
p1033
(F39.336191
F-80.244948
tp1034
sS' Brazil'
p1035
(F5.2717863
F-29.3449961
tp1036
sS'Springfield, VA'
p1037
(F38.815393
F-77.13449109999999
tp1038
sS'Long Beach'
p1039
(F33.8854591
F-118.063253
tp1040
sS'Hickory Hills, IL'
p1041
(F41.740132
F-87.8056019
tp1042
sS'London'
p1043
(F51.6723432
F0.1482711
tp1044
sS'New Braunfels, TX'
p1045
(F29.775557
F-98.0275449
tp1046
sS'Arkansas, USA '
p1047
(F36.4997491
F-89.64483790000001
tp1048
sS'NYC, Philadelphia'
p1049
(F40.072397
F-74.9456147
tp1050
sS'New Mexico'
p1051
(F37.0002931
F-103.0019641
tp1052
sS'South Florida'
p1053
(F31.000968
F-80.0311371
tp1054
sS'Oceania'
p1055
(F20.6584862
F-124.5410156
tp1056
sS'N.J'
p1057
(F50.0831129
F14.4219174
tp1058
sS'Central WI'
p1059
(F42.3383673
F-71.0911685
tp1060
sS'India'
p1061
(F35.5087008
F97.395561
tp1062
sS'DETROIT'
p1063
(F42.4502301
F-82.910451
tp1064
sS'Earth, North America, USA'
p1065
(F34.2476349
F-102.384555
tp1066
sS'Mars'
p1067
(F37.4228412
F-122.1684629
tp1068
sS'Hays County, TX'
p1069
(F30.3563121
F-97.70955
tp1070
sS'Grinnell, IA'
p1071
(F41.7628494
F-92.7017801
tp1072
sS'Nigeria'
p1073
(F13.8856449
F14.6779819
tp1074
sS'CANADA'
p1075
(F83.0956562
F-52.6206965
tp1076
sS'Kansas'
p1077
(F40.004542
F-94.58838709999999
tp1078
sS'Utrecht, The Netherlands'
p1079
(F52.1422104
F5.1952073
tp1080
sS'Confidential'
p1081
(F31.2092723
F121.4455779
tp1082
sS'austin tx'
p1083
(F30.516863
F-97.5684199
tp1084
sS'Madison WI'
p1085
(F43.171916
F-89.24645199999999
tp1086
sS'Reality '
p1087
(F40.9721021
F-74.3719883
tp1088
sS'Augusta, Ga'
p1089
(F33.5449331
F-81.828336
tp1090
sS'Florida, USA'
p1091
(F31.000968
F-80.0311371
tp1092
sS'Barrington, RI'
p1093
(F41.7761129
F-71.2853267
tp1094
sS'Chula Vista, CA/Tijuana Mexico'
p1095
(F32.6856099
F-116.924797
tp1096
sS'The Big Apple'
p1097
(F40.9152555
F-73.70027209999999
tp1098
sS'Baton Rouge'
p1099
(F30.5592161
F-91.0010191
tp1100
sS'eating'
p1101
(F26.9739044
F-81.1212915
tp1102
sS'Boston, MA'
p1103
(F42.3988669
F-70.9232011
tp1104
sS'Kentucky, USA'
p1105
(F39.1474581
F-81.9649709
tp1106
sS'Great state of Texas'
p1107
(F32.7395275
F-97.04061879999999
tp1108
sS'WA, THE GREAT NORTHWEST, USA'
p1109
(F34.5758866
F-80.9045312
tp1110
sS'buffalo,ny'
p1111
(F42.966455
F-78.79515710000001
tp1112
sS'Lewisburg, TN'
p1113
(F35.488549
F-86.727924
tp1114
sS'Brooklyn, NY'
p1115
(F40.739446
F-73.8333651
tp1116
sS'England, Great Britain.'
p1117
(F55.8111127
F1.762916
tp1118
sS'Fort Worth, TX'
p1119
(F33.049311
F-97.0337151
tp1120
sS' Sturtevant, WI'
p1121
(F42.726521
F-87.8794581
tp1122
sS'US'
p1123
(F71.3867745
F-66.9502861
tp1124
sS'where the heart is '
p1125
(F40.4611528
F-79.88783819999999
tp1126
sS'Valdosta, Georgia 31605'
p1127
(F30.928853
F-83.22193109999999
tp1128
sS'louisiana '
p1129
(F33.019525
F-88.8162401
tp1130
sS'UK'
p1131
(F60.8608663
F33.9165549
tp1132
sS'708 - 717 - 703'
p1133
(F39.8390347
F33.5087667
tp1134
sS"N 37\xc2\xb015' 0'' / W 121\xc2\xb048' 0''"
p1135
(F42.9790242
F-91.864376
tp1136
sS'Little Rock, AR'
p1137
(F34.821949
F-92.1549441
tp1138
sS'Amherst, MA'
p1139
(F42.433715
F-72.464186
tp1140
sS'Greater America'
p1141
(F29.81422599999999
F-95.36787
tp1142
sS'Muzambinho, Brasil'
p1143
(F-21.354052
F-46.5104813
tp1144
sS'Columbus, Ohio '
p1145
(F40.157272
F-82.77137809999999
tp1146
sS'Seattle, WA'
p1147
(F47.7341451
F-122.2359033
tp1148
sS' SOUTHBEACH #305 #MIAMI'
p1149
(F25.8002606
F-80.12480649999999
tp1150
sS'Huntington WV'
p1151
(F38.439347
F-82.3531929
tp1152
sS'iowa'
p1153
(F43.5011961
F-90.140061
tp1154
sS'Springfield, OR'
p1155
(F44.095459
F-122.87973
tp1156
sS'Carmel, California'
p1157
(F36.56432
F-121.912781
tp1158
sS'Scarborough'
p1159
(F54.3048801
F-0.373251
tp1160
sS'PHILLY'
p1161
(F40.13799179999999
F-74.95576299999999
tp1162
sS'NJ'
p1163
(F41.3573676
F-73.9024391
tp1164
sS'DETROIT | CHICAGO'
p1165
(F42.3692841
F-83.130921
tp1166
sS'Durham, NC'
p1167
(F36.13692899999999
F-78.762172
tp1168
sS'Dayton'
p1169
(F39.920823
F-84.0929379
tp1170
sS'Maine, USA'
p1171
(F47.4596735
F-66.9453971
tp1172
sS'NY'
p1173
(F40.9152555
F-73.70027209999999
tp1174
sS'Pataskala, OH'
p1175
(F40.0510279
F-82.6374271
tp1176
sS'Aotearoa New Zealand'
p1177
(F-38.139677
F175.610183
tp1178
sS'Long Beach, CA'
p1179
(F33.8854591
F-118.063253
tp1180
sS' Queens NY'
p1181
(F40.80076
F-73.70027209999999
tp1182
sS'Bakersfield,CA 93312'
p1183
(F35.432212
F-119.090819
tp1184
sS'Mount Juliet, TN'
p1185
(F36.277675
F-86.433993
tp1186
sS'Austin, Texas  78744'
p1187
(F30.2223891
F-97.67970009999999
tp1188
sS"Bessarabs'ka square Kyiv"
p1189
(F50.4435882
F30.5232478
tp1190
sS'Toronto, Canada'
p1191
(F43.8554579
F-79.1168971
tp1192
sS'Lexington, Ky'
p1193
(F38.211404
F-84.282715
tp1194
sS'Austin'
p1195
(F30.516863
F-97.5684199
tp1196
sS'New York City Area'
p1197
(F40.88511159999999
F-72.3931941
tp1198
sS'Hamilton, OH'
p1199
(F39.45711
F-84.4911439
tp1200
sS'Columbus, OH'
p1201
(F40.157272
F-82.77137809999999
tp1202
sS'Los Angeles // DC'
p1203
(F4.703528299999999
F-74.1181505
tp1204
sS'mid west'
p1205
(F43.419657
F-106.268849
tp1206
sS'Texas, the Lone Star State'
p1207
(F36.5007041
F-93.5080389
tp1208
sS'Suwanee, GA'
p1209
(F34.084337
F-84.02277000000001
tp1210
sS'View Park-Windsor Hills, CA'
p1211
(F34.008258
F-118.3314851
tp1212
sS'Mumbai'
p1213
(F19.2716338
F72.9864994
tp1214
sS'ua'
p1215
(F52.37958099999999
F40.2285809
tp1216
sS'Exeter, UK'
p1217
(F50.76146490000001
F-3.4563589
tp1218
sS'AMERICA!'
p1219
(F71.3867745
F-66.9502861
tp1220
sS'US of A'
p1221
(F71.3867745
F-66.9502861
tp1222
sS'South Carolina, USA'
p1223
(F35.2155401
F-78.54082009999999
tp1224
sS'USA'
p1225
(F71.3867745
F-66.9502861
tp1226
sS'NW Arkansas'
p1227
(F36.4997491
F-89.64483790000001
tp1228
sS'Georgia, USA'
p1229
(F35.00065900000001
F-80.8407866
tp1230
sS'New York, New York'
p1231
(F40.9152555
F-73.70027209999999
tp1232
sS'West of the Wasatch'
p1233
(F40.6909481
F-110.8917821
tp1234
sS'The Symposium'
p1235
(F38.7481409
F-76.89366
tp1236
sS'Orlando Florida'
p1237
(F28.6143519
F-81.2297701
tp1238
sS'New York, NY'
p1239
(F40.9152555
F-73.70027209999999
tp1240
sS'Pacific Northwest '
p1241
(F46.794303
F-123.35722
tp1242
sS'Moscow, Russia'
p1243
(F56.0096569
F37.9456611
tp1244
sS'Solon, OH'
p1245
(F41.4247529
F-81.391393
tp1246
sS'Brasil'
p1247
(F5.2717863
F-29.3448224
tp1248
sS'Cambridge, MA'
p1249
(F42.4043839
F-71.0654873
tp1250
sS'Texas, USA'
p1251
(F36.5007041
F-93.5080389
tp1252
sS'Culver City'
p1253
(F34.03508
F-118.369577
tp1254
sS'TX'
p1255
(F36.5007041
F-93.5080389
tp1256
sS'Smokey Mountains, Tennessee '
p1257
(F36.335678
F-86.467488
tp1258
sS'Fort Worth Texas '
p1259
(F33.049311
F-97.0337151
tp1260
sS'On top of the world'
p1261
(F28.0083309
F-82.7337
tp1262
sS'Baghdad, Colombia, Florida'
p1263
(F33.4350585
F44.5558261
tp1264
sS'Caracas, Venezuela'
p1265
(F10.5401335
F-66.71795329999999
tp1266
sS'Toronto '
p1267
(F43.8554579
F-79.1168971
tp1268
sS'The Milky Way'
p1269
(F42.9966132
F-89.56468819999999
tp1270
sS'Sacramento, Ca.'
p1271
(F38.685507
F-121.3257051
tp1272
sS'phoenix'
p1273
(F33.9205701
F-111.9260461
tp1274
sS'Madison '
p1275
(F43.171916
F-89.24645199999999
tp1276
sS'British Columbia, Canada'
p1277
(F60.000149
F-114.054221
tp1278
sS'Palm Desert, CA'
p1279
(F33.810363
F-116.302079
tp1280
sS'Gilbert, AZ'
p1281
(F33.3857919
F-111.6860711
tp1282
sS'Charleston, SC '
p1283
(F32.9735861
F-79.79716599999999
tp1284
sS'Oregon city . Oregon .'
p1285
(F45.3807111
F-122.551971
tp1286
sS'Fruit Hill, Kentucky'
p1287
(F37.2883262
F-87.11927700000001
tp1288
sS'Baltimore'
p1289
(F39.3722059
F-76.5294529
tp1290
sS'Westfield Massachusetts '
p1291
(F42.2001858
F-72.6848359
tp1292
sS'U*S*A !'
p1293
(F71.3867745
F-66.9502861
tp1294
sS'Midwest USA'
p1295
(F43.419657
F-106.268849
tp1296
sS'\xc3\x9cT: 38.735951,-77.08922'
p1297
(F41.67218949999999
F-112.089759
tp1298
sS'Delray Beach,FL,USA\xe2\x98\x80\xef\xb8\x8f'
p1299
(F26.4914608
F-80.0557784
tp1300
sS'Private'
p1301
(F39.5256474
F-104.9062034
tp1302
sS'Fairfax, VA'
p1303
(F38.87169189999999
F-77.268624
tp1304
sS'reno, nevada'
p1305
(F39.723436
F-119.699345
tp1306
sS'World Wide'
p1307
(F22.2828053
F114.157939
tp1308
sS'Philly'
p1309
(F40.13799179999999
F-74.95576299999999
tp1310
s.