(dp0
Vsearch_metadata
p1
(dp2
Vcount
p3
I2
sVcompleted_in
p4
F0.02
sVmax_id_str
p5
V770446854656065538
p6
sVsince_id_str
p7
V0
p8
sVnext_results
p9
V?max_id=770446854517424128&q=hillary%20Clinton&lang=en&count=2&include_entities=1
p10
sVrefresh_url
p11
V?since_id=770446854656065538&q=hillary%20Clinton&lang=en&include_entities=1
p12
sVsince_id
p13
I0
sVquery
p14
Vhillary+Clinton
p15
sVmax_id
p16
L770446854656065538L
ssVstatuses
p17
(lp18
(dp19
Vcontributors
p20
NsVtruncated
p21
I00
sVtext
p22
VRT @halsteadg048: Verizon blocking RT FYI -Clinton Foundation donors given special treatment while Hillary was DoS head, emails show https:\u2026
p23
sVis_quote_status
p24
I01
sVin_reply_to_status_id
p25
NsVid
p26
L770446854656065538L
sVfavorite_count
p27
I0
sVentities
p28
(dp29
Vsymbols
p30
(lp31
sVuser_mentions
p32
(lp33
(dp34
g26
L2753220014L
sVindices
p35
(lp36
I3
aI16
asVid_str
p37
V2753220014
p38
sVscreen_name
p39
Vhalsteadg048
p40
sVname
p41
Vflyingeagle
p42
sasVhashtags
p43
(lp44
sVurls
p45
(lp46
(dp47
Vurl
p48
Vhttps://t.co/RKRYmYuaYz
p49
sg35
(lp50
I139
aI140
asVexpanded_url
p51
Vhttps://twitter.com/avanconia/status/770304158222213121
p52
sVdisplay_url
p53
Vtwitter.com/avanconia/stat\u2026
p54
sassVquoted_status_id
p55
L770304158222213121L
sVretweeted
p56
I00
sVcoordinates
p57
NsVsource
p58
V<a href="http://twitter.com/download/android" rel="nofollow">Twitter for Android</a>
p59
sVin_reply_to_screen_name
p60
NsVin_reply_to_user_id
p61
NsVretweet_count
p62
I1
sg37
V770446854656065538
p63
sVfavorited
p64
I00
sVretweeted_status
p65
(dp66
g20
Nsg21
I00
sg22
VVerizon blocking RT FYI -Clinton Foundation donors given special treatment while Hillary was DoS head, emails show https://t.co/RKRYmYuaYz
p67
sg24
I01
sg25
Nsg26
L770445913080885248L
sg27
I0
sg28
(dp68
g30
(lp69
sg32
(lp70
sg43
(lp71
sg45
(lp72
(dp73
g48
Vhttps://t.co/RKRYmYuaYz
p74
sg35
(lp75
I115
aI138
asg51
Vhttps://twitter.com/avanconia/status/770304158222213121
p76
sg53
Vtwitter.com/avanconia/stat\u2026
p77
sassg55
L770304158222213121L
sg56
I00
sg57
NsVquoted_status
p78
(dp79
g20
Nsg21
I00
sg22
VVerizon blocking RT FYI -Clinton Foundation donors given special treatment while Hillary was DoS head, emails show https://t.co/AJghT49pTG
p80
sg24
I00
sg25
Nsg26
L770304158222213121L
sg27
I4
sg28
(dp81
g30
(lp82
sg32
(lp83
sg43
(lp84
sg45
(lp85
(dp86
g48
Vhttps://t.co/AJghT49pTG
p87
sg35
(lp88
I115
aI138
asg51
Vhttp://ln.is/www.rt.com/usa/4IoXk
p89
sg53
Vln.is/www.rt.com/usa\u2026
p90
sassg56
I00
sg57
Nsg58
V<a href="http://linkis.com" rel="nofollow">Your best free sharing tool!</a>
p91
sg60
Nsg61
Nsg62
I3
sg37
V770304158222213121
p92
sg64
I00
sVuser
p93
(dp94
Vfollow_request_sent
p95
I00
sVhas_extended_profile
p96
I01
sVprofile_use_background_image
p97
I01
sVdefault_profile_image
p98
I00
sg26
I21976456
sVprofile_background_image_url_https
p99
Vhttps://pbs.twimg.com/profile_background_images/8910347/EDITBG.jpg
p100
sVverified
p101
I00
sVprofile_text_color
p102
V666666
p103
sVprofile_image_url_https
p104
Vhttps://pbs.twimg.com/profile_images/199310266/blogimg_normal.jpg
p105
sVprofile_sidebar_fill_color
p106
V252429
p107
sg28
(dp108
Vdescription
p109
(dp110
g45
(lp111
sssVfollowers_count
p112
I2449
sVprofile_sidebar_border_color
p113
V181A1E
p114
sg37
V21976456
p115
sVprofile_background_color
p116
V1A1B1F
p117
sVlisted_count
p118
I25
sVis_translation_enabled
p119
I00
sVutc_offset
p120
I-25200
sVstatuses_count
p121
I3806
sg109
VCalifornia 4 TrumpPence16+ -I HONOR Vets, Cons, 2A TrumpArmy NRA-1hour in my timeline is 7days of relevant reading. *Crusader*    TweetsStarted 8/14/2016
p122
sVfriends_count
p123
I4990
sVlocation
p124
VEl Dorado, Placer, Sac. Cali.
p125
sVprofile_link_color
p126
V1B95E0
p127
sVprofile_image_url
p128
Vhttp://pbs.twimg.com/profile_images/199310266/blogimg_normal.jpg
p129
sVfollowing
p130
I00
sVgeo_enabled
p131
I00
sVprofile_banner_url
p132
Vhttps://pbs.twimg.com/profile_banners/21976456/1472252796
p133
sVprofile_background_image_url
p134
Vhttp://pbs.twimg.com/profile_background_images/8910347/EDITBG.jpg
p135
sg39
Vavanconia
p136
sVlang
p137
Ven
p138
sVprofile_background_tile
p139
I00
sVfavourites_count
p140
I5504
sg41
VOrganizingResistance
p141
sVnotifications
p142
I00
sg48
NsVcreated_at
p143
VThu Feb 26 05:11:28 +0000 2009
p144
sVcontributors_enabled
p145
I00
sVtime_zone
p146
VPacific Time (US & Canada)
p147
sVprotected
p148
I00
sVdefault_profile
p149
I00
sVis_translator
p150
I00
ssVgeo
p151
NsVin_reply_to_user_id_str
p152
NsVpossibly_sensitive
p153
I00
sg137
Ven
p154
sg143
VMon Aug 29 16:56:37 +0000 2016
p155
sVin_reply_to_status_id_str
p156
NsVplace
p157
NsVmetadata
p158
(dp159
Viso_language_code
p160
Ven
p161
sVresult_type
p162
Vrecent
p163
sssg58
V<a href="http://twitter.com" rel="nofollow">Twitter Web Client</a>
p164
sg60
Nsg61
Nsg62
I1
sg37
V770445913080885248
p165
sg64
I00
sg93
(dp166
g95
I00
sg96
I00
sg97
I00
sg98
I00
sg26
L2753220014L
sg99
Vhttps://abs.twimg.com/images/themes/theme1/bg.png
p167
sg101
I00
sg102
V000000
p168
sg104
Vhttps://pbs.twimg.com/profile_images/715974444209086464/-UiFMPd-_normal.jpg
p169
sg106
V000000
p170
sg28
(dp171
g109
(dp172
g45
(lp173
sssg112
I6545
sg113
V000000
p174
sg37
V2753220014
p175
sg116
V000000
p176
sg118
I75
sg119
I00
sg120
Nsg121
I23618
sg109
VAmericans.. We have a chance to take our Country Back. Donald Trump is a True Patriot and will work endlessly for We The People as he's done on the Campaign
p177
sg123
I4622
sg124
V
p178
sg126
V981CEB
p179
sg128
Vhttp://pbs.twimg.com/profile_images/715974444209086464/-UiFMPd-_normal.jpg
p180
sg130
I00
sg131
I00
sg132
Vhttps://pbs.twimg.com/profile_banners/2753220014/1459536131
p181
sg134
Vhttp://abs.twimg.com/images/themes/theme1/bg.png
p182
sg39
Vhalsteadg048
p183
sg137
Ven
p184
sg139
I00
sg140
I28027
sg41
Vflyingeagle
p185
sg142
I00
sg48
Nsg143
VThu Aug 21 22:18:14 +0000 2014
p186
sg145
I00
sg146
Nsg148
I00
sg149
I00
sg150
I00
ssg151
Nsg152
Nsg153
I00
sg137
Ven
p187
sg143
VTue Aug 30 02:19:54 +0000 2016
p188
sVquoted_status_id_str
p189
V770304158222213121
p190
sg156
Nsg157
Nsg158
(dp191
g160
Ven
p192
sg162
Vrecent
p193
sssg93
(dp194
g95
I00
sg96
I00
sg97
I01
sg98
I00
sg26
I305547528
sg99
Vhttps://pbs.twimg.com/profile_background_images/833613855/70c164800ec2753d15a8388c1e8ccbb8.jpeg
p195
sg101
I00
sg102
V333333
p196
sg104
Vhttps://pbs.twimg.com/profile_images/561156193662406656/eKpF4N3n_normal.jpeg
p197
sg106
VDDEEF6
p198
sg28
(dp199
g48
(dp200
g45
(lp201
(dp202
g48
Vhttps://t.co/lacpzCQSl5
p203
sg35
(lp204
I0
aI23
asg51
Vhttp://www.apmweb.com
p205
sg53
Vapmweb.com
p206
sassg109
(dp207
g45
(lp208
sssg112
I3043
sg113
VFFFFFF
p209
sg37
V305547528
p210
sg116
VC0DEED
p211
sg118
I73
sg119
I00
sg120
Nsg121
I29014
sg109
VSailing / Solar Power / Electric Cars / Robotics / Software Dev., Ex Navy, Republican for now as long as Trump get re-elected Stage 3 Prostate Cancer Survivor
p212
sg123
I4699
sg124
VHamilton, New Jersey
p213
sg126
VDD2E44
p214
sg128
Vhttp://pbs.twimg.com/profile_images/561156193662406656/eKpF4N3n_normal.jpeg
p215
sg130
I00
sg131
I01
sg132
Vhttps://pbs.twimg.com/profile_banners/305547528/1422624999
p216
sg134
Vhttp://pbs.twimg.com/profile_background_images/833613855/70c164800ec2753d15a8388c1e8ccbb8.jpeg
p217
sg39
Vjphillipsjack
p218
sg137
Ven
p219
sg139
I00
sg140
I18877
sg41
VJack Phillips
p220
sg142
I00
sg48
Vhttps://t.co/lacpzCQSl5
p221
sg143
VThu May 26 12:12:02 +0000 2011
p222
sg145
I00
sg146
Nsg148
I00
sg149
I00
sg150
I00
ssg151
Nsg152
Nsg153
I00
sg137
Ven
p223
sg143
VTue Aug 30 02:23:39 +0000 2016
p224
sg189
V770304158222213121
p225
sg156
Nsg157
Nsg158
(dp226
g160
Ven
p227
sg162
Vrecent
p228
ssa(dp229
g20
Nsg21
I00
sg22
VRT @danmericaCNN: Hillary Clinton raised over $2.8 million today at three events in the Hamptons today. That is actually small for her: She\u2026
p230
sg24
I00
sg25
Nsg26
L770446854517424129L
sg27
I0
sg28
(dp231
g30
(lp232
sg32
(lp233
(dp234
g26
I36890646
sg35
(lp235
I3
aI16
asg37
V36890646
p236
sg39
VdanmericaCNN
p237
sg41
VDan Merica
p238
sasg43
(lp239
sg45
(lp240
ssg56
I00
sg57
Nsg58
V<a href="http://twitter.com/download/android" rel="nofollow">Twitter for Android</a>
p241
sg60
Nsg61
Nsg62
I9
sg37
V770446854517424129
p242
sg64
I00
sg65
(dp243
g20
Nsg21
I00
sg22
VHillary Clinton raised over $2.8 million today at three events in the Hamptons today. That is actually small for her: She raised $11m ytdy.
p244
sg24
I00
sg25
Nsg26
L770444294117285888L
sg27
I19
sg28
(dp245
g30
(lp246
sg32
(lp247
sg43
(lp248
sg45
(lp249
ssg56
I00
sg57
Nsg58
V<a href="http://twitter.com/download/iphone" rel="nofollow">Twitter for iPhone</a>
p250
sg60
Nsg61
Nsg62
I9
sg37
V770444294117285888
p251
sg64
I00
sg93
(dp252
g95
I00
sg96
I00
sg97
I01
sg98
I00
sg26
I36890646
sg99
Vhttps://pbs.twimg.com/profile_background_images/502476964909694976/Sx6I2YhS.jpeg
p253
sg101
I01
sg102
V663B12
p254
sg104
Vhttps://pbs.twimg.com/profile_images/704768525911597056/dMD1wBZt_normal.jpg
p255
sg106
VDAECF4
p256
sg28
(dp257
g48
(dp258
g45
(lp259
(dp260
g48
Vhttps://t.co/MJqdxti3Tw
p261
sg35
(lp262
I0
aI23
asg51
Vhttp://www.cnn.com/politics
p263
sg53
Vcnn.com/politics
p264
sassg109
(dp265
g45
(lp266
sssg112
I29978
sg113
VFFFFFF
p267
sg37
V36890646
p268
sg116
VC6E2EE
p269
sg118
I1037
sg119
I00
sg120
I-14400
sg121
I24507
sg109
VPolitical Producer for @CNNPolitics. @BentleyU & @AmericanU grad. Nats fan. Currently covering Hillary Clinton. dan.merica@cnn.com
p270
sg123
I1971
sg124
VWashington, D.C.
p271
sg126
V1F98C7
p272
sg128
Vhttp://pbs.twimg.com/profile_images/704768525911597056/dMD1wBZt_normal.jpg
p273
sg130
I00
sg131
I01
sg132
Vhttps://pbs.twimg.com/profile_banners/36890646/1428095985
p274
sg134
Vhttp://pbs.twimg.com/profile_background_images/502476964909694976/Sx6I2YhS.jpeg
p275
sg39
VdanmericaCNN
p276
sg137
Ven
p277
sg139
I00
sg140
I425
sg41
VDan Merica
p278
sg142
I00
sg48
Vhttps://t.co/MJqdxti3Tw
p279
sg143
VFri May 01 05:21:55 +0000 2009
p280
sg145
I00
sg146
VEastern Time (US & Canada)
p281
sg148
I00
sg149
I00
sg150
I00
ssg151
Nsg152
Nsg137
Ven
p282
sg143
VTue Aug 30 02:13:28 +0000 2016
p283
sg156
Nsg157
Nsg158
(dp284
g160
Ven
p285
sg162
Vrecent
p286
sssg93
(dp287
g95
I00
sg96
I01
sg97
I00
sg98
I00
sg26
I216123608
sg99
Vhttps://pbs.twimg.com/profile_background_images/378800000156487780/ZWzN8MWw.jpeg
p288
sg101
I00
sg102
V333333
p289
sg104
Vhttps://pbs.twimg.com/profile_images/758093411802951681/iPWK8EFq_normal.jpg
p290
sg106
VDDEEF6
p291
sg28
(dp292
g48
(dp293
g45
(lp294
(dp295
g48
Vhttps://t.co/zlCD4dno9T
p296
sg35
(lp297
I0
aI23
asg51
Vhttp://berniecrats.net
p298
sg53
Vberniecrats.net
p299
sassg109
(dp300
g45
(lp301
sssg112
I3399
sg113
VFFFFFF
p302
sg37
V216123608
p303
sg116
V393A9E
p304
sg118
I444
sg119
I00
sg120
I-14400
sg121
I138803
sg109
VAfrican American male born and raised in Camden, New Jersey, USA. Clinton won't bring me to heel. #DemExit #BernieBro4Life
p305
sg123
I5000
sg124
VCamden, NJ
p306
sg126
V393A9E
p307
sg128
Vhttp://pbs.twimg.com/profile_images/758093411802951681/iPWK8EFq_normal.jpg
p308
sg130
I00
sg131
I01
sg132
Vhttps://pbs.twimg.com/profile_banners/216123608/1471383113
p309
sg134
Vhttp://pbs.twimg.com/profile_background_images/378800000156487780/ZWzN8MWw.jpeg
p310
sg39
Vacobasi
p311
sg137
Ven
p312
sg139
I01
sg140
I168558
sg41
VAnthoney C. Obasi
p313
sg142
I00
sg48
Vhttps://t.co/zlCD4dno9T
p314
sg143
VMon Nov 15 21:18:32 +0000 2010
p315
sg145
I00
sg146
VEastern Time (US & Canada)
p316
sg148
I00
sg149
I00
sg150
I00
ssg151
Nsg152
Nsg137
Ven
p317
sg143
VTue Aug 30 02:23:38 +0000 2016
p318
sg156
Nsg157
Nsg158
(dp319
g160
Ven
p320
sg162
Vrecent
p321
ssas.